; Function Attrs: nounwind uwtable
define nonnull ptr @l_Lean_IR_ExplicitBoxing_getScrutineeType___boxed(ptr noundef %0) local_unnamed_addr #0 {
  %2 = getelementptr i8, ptr %0, i64 8
  %.val.i = load i64, ptr %2, align 8, !tbaa !8
  %3 = shl i64 %.val.i, 1
  %4 = or disjoint i64 %3, 1
  %5 = inttoptr i64 %4 to ptr
  %6 = icmp ult i64 %3, 4
  br i1 %6, label %l_Lean_IR_ExplicitBoxing_getScrutineeType.exit, label %lean_nat_lt.exit57.i

lean_nat_lt.exit57.i:                             ; preds = %1
  %7 = and i64 %.val.i, 9223372036854775807
  %8 = tail call zeroext i8 @l_Array_anyMUnsafe_any___at_Lean_IR_ExplicitBoxing_getScrutineeType___spec__1(ptr noundef nonnull readonly %0, i64 noundef 0, i64 noundef %7)
  %9 = icmp eq i8 %8, 0
  br i1 %9, label %lean_nat_lt.exit60.i, label %l_Lean_IR_ExplicitBoxing_getScrutineeType.exit

lean_nat_lt.exit60.i:                             ; preds = %lean_nat_lt.exit57.i
  %10 = icmp ugt i64 %3, 511
  br i1 %10, label %lean_nat_lt.exit63.i, label %l_Lean_IR_ExplicitBoxing_getScrutineeType.exit

lean_nat_lt.exit63.i:                             ; preds = %lean_nat_lt.exit60.i
  %11 = icmp ugt i64 %3, 131071
  br i1 %11, label %12, label %l_Lean_IR_ExplicitBoxing_getScrutineeType.exit

12:                                               ; preds = %lean_nat_lt.exit63.i
  %13 = tail call ptr @lean_cstr_to_nat(ptr noundef nonnull @.str) #6
  %14 = ptrtoint ptr %13 to i64
  %15 = and i64 %14, 1
  %.not.i3 = icmp eq i64 %15, 0
  br i1 %.not.i3, label %.critedge.i64.i, label %16, !prof !14

16:                                               ; preds = %12
  %17 = icmp ugt ptr %13, %5
  br label %lean_dec.exit41.i

.critedge.i64.i:                                  ; preds = %12
  %18 = tail call zeroext i1 @lean_nat_big_lt(ptr noundef nonnull %5, ptr noundef %13) #6
  br label %lean_dec.exit41.i

lean_dec.exit41.i:                                ; preds = %.critedge.i64.i, %16
  %.0.i65.i = phi i1 [ %17, %16 ], [ %18, %.critedge.i64.i ]
  %spec.select.i = select i1 %.0.i65.i, ptr inttoptr (i64 7 to ptr), ptr inttoptr (i64 15 to ptr)
  br label %l_Lean_IR_ExplicitBoxing_getScrutineeType.exit

l_Lean_IR_ExplicitBoxing_getScrutineeType.exit:   ; preds = %1, %lean_nat_lt.exit57.i, %lean_nat_lt.exit60.i, %lean_nat_lt.exit63.i, %lean_dec.exit41.i
  %.0.i = phi ptr [ inttoptr (i64 15 to ptr), %1 ], [ inttoptr (i64 15 to ptr), %lean_nat_lt.exit57.i ], [ inttoptr (i64 5 to ptr), %lean_nat_lt.exit63.i ], [ inttoptr (i64 3 to ptr), %lean_nat_lt.exit60.i ], [ %spec.select.i, %lean_dec.exit41.i ]
  %19 = ptrtoint ptr %0 to i64
  %20 = and i64 %19, 1
  %.not = icmp eq i64 %20, 0
  br i1 %.not, label %21, label %lean_dec.exit

21:                                               ; preds = %l_Lean_IR_ExplicitBoxing_getScrutineeType.exit
  %22 = load i32, ptr %0, align 4, !tbaa !10
  %23 = icmp sgt i32 %22, 1
  br i1 %23, label %24, label %26, !prof !13

24:                                               ; preds = %21
  %25 = add nsw i32 %22, -1
  store i32 %25, ptr %0, align 4, !tbaa !10
  br label %lean_dec.exit

26:                                               ; preds = %21
  %.not.i = icmp eq i32 %22, 0
  br i1 %.not.i, label %lean_dec.exit, label %27

27:                                               ; preds = %26
  tail call void @lean_dec_ref_cold(ptr noundef nonnull %0) #6
  br label %lean_dec.exit

lean_dec.exit:                                    ; preds = %27, %26, %24, %l_Lean_IR_ExplicitBoxing_getScrutineeType.exit
  ret ptr %.0.i
}